; Function Attrs: mustprogress nounwind uwtable
define hidden noundef double @_ZN12ZStatWorkers20accumulated_durationEv(ptr nocapture noundef nonnull readonly align 8 dereferenceable(96) %0) local_unnamed_addr #0 align 2 {
  %2 = tail call { i64, i64 } @_ZN29CompositeElapsedCounterSource3nowEv() #20
  %3 = getelementptr inbounds i8, ptr %0, i64 64
  %.sroa.01.0.copyload = load i64, ptr %3, align 8
  %.sroa.4.0..sroa_idx = getelementptr inbounds i8, ptr %0, i64 72
  %.sroa.4.0.copyload = load i64, ptr %.sroa.4.0..sroa_idx, align 8
  %4 = getelementptr inbounds i8, ptr %0, i64 40
  %5 = load i32, ptr %4, align 8
  %.not = icmp eq i32 %5, 0
  br i1 %.not, label %14, label %6

6:                                                ; preds = %1
  %.sroa.24.0..sroa_idx = getelementptr inbounds i8, ptr %0, i64 56
  %.sroa.24.0.copyload = load i64, ptr %.sroa.24.0..sroa_idx, align 8
  %7 = getelementptr inbounds i8, ptr %0, i64 48
  %.sroa.03.0.copyload = load i64, ptr %7, align 8
  %8 = extractvalue { i64, i64 } %2, 1
  %9 = extractvalue { i64, i64 } %2, 0
  %10 = add i64 %.sroa.01.0.copyload, %9
  %11 = sub i64 %10, %.sroa.03.0.copyload
  %12 = add i64 %.sroa.4.0.copyload, %8
  %13 = sub i64 %12, %.sroa.24.0.copyload
  br label %14

14:                                               ; preds = %6, %1
  %.sroa.01.0 = phi i64 [ %.sroa.01.0.copyload, %1 ], [ %11, %6 ]
  %.sroa.4.0 = phi i64 [ %.sroa.4.0.copyload, %1 ], [ %13, %6 ]
  %15 = tail call noundef double @_ZN29CompositeElapsedCounterSource7secondsE7PairRepIllE(i64 %.sroa.01.0, i64 %.sroa.4.0) #20
  ret double %15
}